target datalayout = "e-m:e-p270:32:32-p271:32:32-p272:64:64-i64:64-i128:128-f80:128-n8:16:32:64-S128"
target triple = "x86_64-pc-linux-gnu"

%class.expr_context_simplifier = type <{ ptr, %class.arith_util, %class.obj_map, %class.ref_vector, %class.bool_rewriter, %class.obj_mark, i8, [7 x i8] }>
%class.arith_util = type { ptr, ptr }
%class.obj_map = type { %class.core_hashtable }
%class.core_hashtable = type <{ ptr, i32, i32, i32, [4 x i8] }>
%class.ref_vector = type { %class.ref_vector_core }
%class.ref_vector_core = type { %class.ref_manager_wrapper, %class.ptr_vector }
%class.ref_manager_wrapper = type { ptr }
%class.ptr_vector = type { %class.vector }
%class.vector = type { ptr }
%class.bool_rewriter = type { ptr, i8, i8, i8, i8, i8, i8, i32, i8, i32, i32, i8, %class.ptr_vector, %class.ptr_vector, %class.svector, %class.svector }
%class.svector = type { %class.vector.0 }
%class.vector.0 = type { ptr }
%class.obj_mark = type { [8 x i8], %class.bit_vector }
%class.bit_vector = type { i32, i32, ptr }
%class.obj_ref = type { ptr, ptr }

; Function Attrs: mustprogress nounwind uwtable
define linkonce_odr hidden noundef i32 @_ZNK6vectorIP4exprLb0EjE4sizeEv(ptr noundef nonnull align 8 dereferenceable(8) %0) #7 comdat align 2 {
  %2 = alloca i32, align 4
  %3 = alloca ptr, align 8
  store ptr %0, ptr %3, align 8, !tbaa !200
  %4 = load ptr, ptr %3, align 8
  %5 = getelementptr inbounds nuw %class.vector, ptr %4, i32 0, i32 0
  %6 = load ptr, ptr %5, align 8, !tbaa !202
  %7 = icmp eq ptr %6, null
  br i1 %7, label %8, label %9

8:                                                ; preds = %1
  store i32 0, ptr %2, align 4
  br label %14

9:                                                ; preds = %1
  %10 = getelementptr inbounds nuw %class.vector, ptr %4, i32 0, i32 0
  %11 = load ptr, ptr %10, align 8, !tbaa !202
  %12 = getelementptr inbounds i32, ptr %11, i64 -1
  %13 = load i32, ptr %12, align 4, !tbaa !62
  store i32 %13, ptr %2, align 4
  br label %14

14:                                               ; preds = %9, %8
  %15 = load i32, ptr %2, align 4
  ret i32 %15
}

; Function Attrs: mustprogress nounwind uwtable
define linkonce_odr hidden void @_ZN10bit_vector5resetEv(ptr noundef nonnull align 8 dereferenceable(16) %0) #7 comdat align 2 {
  %2 = alloca ptr, align 8
  store ptr %0, ptr %2, align 8, !tbaa !322
  %3 = load ptr, ptr %2, align 8
  %4 = getelementptr inbounds nuw %class.bit_vector, ptr %3, i32 0, i32 2
  %5 = load ptr, ptr %4, align 8, !tbaa !326
  %6 = icmp ne ptr %5, null
  br i1 %6, label %7, label %14

7:                                                ; preds = %1
  %8 = getelementptr inbounds nuw %class.bit_vector, ptr %3, i32 0, i32 2
  %9 = load ptr, ptr %8, align 8, !tbaa !326
  %10 = getelementptr inbounds nuw %class.bit_vector, ptr %3, i32 0, i32 1
  %11 = load i32, ptr %10, align 4, !tbaa !325
  %12 = zext i32 %11 to i64
  %13 = mul i64 %12, 4
  call void @llvm.memset.p0.i64(ptr align 4 %9, i8 0, i64 %13, i1 false)
  br label %14

14:                                               ; preds = %7, %1
  %15 = getelementptr inbounds nuw %class.bit_vector, ptr %3, i32 0, i32 0
  store i32 0, ptr %15, align 8, !tbaa !324
  ret void
}

; Function Attrs: mustprogress nounwind uwtable
define linkonce_odr hidden noundef ptr @_ZNK7obj_refI4expr11ast_managerE3getEv(ptr noundef nonnull align 8 dereferenceable(16) %0) #7 comdat align 2 {
  %2 = alloca ptr, align 8
  store ptr %0, ptr %2, align 8, !tbaa !59
  %3 = load ptr, ptr %2, align 8
  %4 = getelementptr inbounds nuw %class.obj_ref, ptr %3, i32 0, i32 0
  %5 = load ptr, ptr %4, align 8, !tbaa !63
  ret ptr %5
}

; Function Attrs: mustprogress nounwind uwtable
define linkonce_odr hidden noundef i32 @_ZNK15ref_vector_coreI4expr19ref_manager_wrapperIS0_11ast_managerEE4sizeEv(ptr noundef nonnull align 8 dereferenceable(16) %0) #7 comdat align 2 {
  %2 = alloca ptr, align 8
  store ptr %0, ptr %2, align 8, !tbaa !55
  %3 = load ptr, ptr %2, align 8
  %4 = getelementptr inbounds nuw %class.ref_vector_core, ptr %3, i32 0, i32 1
  %5 = call noundef i32 @_ZNK6vectorIP4exprLb0EjE4sizeEv(ptr noundef nonnull align 8 dereferenceable(8) %4)
  ret i32 %5
}

; Function Attrs: mustprogress uwtable
define linkonce_odr hidden void @_ZN8obj_markI4expr10bit_vector14default_t2uintIS0_EE5resetEv(ptr noundef nonnull align 8 dereferenceable(24) %0) #4 comdat align 2 {
  %2 = alloca ptr, align 8
  store ptr %0, ptr %2, align 8, !tbaa !51
  %3 = load ptr, ptr %2, align 8
  %4 = getelementptr inbounds nuw %class.obj_mark, ptr %3, i32 0, i32 1
  call void @_ZN10bit_vector5resetEv(ptr noundef nonnull align 8 dereferenceable(16) %4)
  ret void
}

; Function Attrs: mustprogress nounwind uwtable
define linkonce_odr hidden void @_ZN7obj_refI4expr11ast_managerEC2ERS1_(ptr noundef nonnull align 8 dereferenceable(16) %0, ptr noundef nonnull align 8 dereferenceable(976) %1) unnamed_addr #7 comdat align 2 {
  %3 = alloca ptr, align 8
  %4 = alloca ptr, align 8
  store ptr %0, ptr %3, align 8, !tbaa !59
  store ptr %1, ptr %4, align 8, !tbaa !8
  %5 = load ptr, ptr %3, align 8
  %6 = getelementptr inbounds nuw %class.obj_ref, ptr %5, i32 0, i32 0
  store ptr null, ptr %6, align 8, !tbaa !63
  %7 = getelementptr inbounds nuw %class.obj_ref, ptr %5, i32 0, i32 1
  %8 = load ptr, ptr %4, align 8, !tbaa !8
  store ptr %8, ptr %7, align 8, !tbaa !8
  ret void
}

; Function Attrs: mustprogress uwtable
define hidden void @_ZN23expr_context_simplifier6reduceEP4exprR7obj_refIS0_11ast_managerE(ptr noundef nonnull align 8 dereferenceable(161) %0, ptr noundef %1, ptr noundef nonnull align 8 dereferenceable(16) %2) #4 align 2 personality ptr @__gxx_personality_v0 {
  %4 = alloca ptr, align 8
  %5 = alloca ptr, align 8
  %6 = alloca ptr, align 8
  %7 = alloca %class.obj_ref, align 8
  %8 = alloca ptr, align 8
  %9 = alloca i32, align 4
  %10 = alloca i32, align 4
  store ptr %0, ptr %4, align 8, !tbaa !3
  store ptr %1, ptr %5, align 8, !tbaa !57
  store ptr %2, ptr %6, align 8, !tbaa !59
  %11 = load ptr, ptr %4, align 8
  call void @llvm.lifetime.start.p0(i64 16, ptr %7) #3
  %12 = getelementptr inbounds nuw %class.expr_context_simplifier, ptr %11, i32 0, i32 0
  %13 = load ptr, ptr %12, align 8, !tbaa !61
  call void @_ZN7obj_refI4expr11ast_managerEC2ERS1_(ptr noundef nonnull align 8 dereferenceable(16) %7, ptr noundef nonnull align 8 dereferenceable(976) %13)
  %14 = getelementptr inbounds nuw %class.expr_context_simplifier, ptr %11, i32 0, i32 5
  invoke void @_ZN8obj_markI4expr10bit_vector14default_t2uintIS0_EE5resetEv(ptr noundef nonnull align 8 dereferenceable(24) %14)
          to label %15 unwind label %31

15:                                               ; preds = %3
  call void @llvm.lifetime.start.p0(i64 4, ptr %10) #3
  %16 = getelementptr inbounds nuw %class.expr_context_simplifier, ptr %11, i32 0, i32 3
  %17 = invoke noundef i32 @_ZNK15ref_vector_coreI4expr19ref_manager_wrapperIS0_11ast_managerEE4sizeEv(ptr noundef nonnull align 8 dereferenceable(16) %16)
          to label %18 unwind label %35

18:                                               ; preds = %15
  store i32 %17, ptr %10, align 4, !tbaa !62
  %19 = getelementptr inbounds nuw %class.expr_context_simplifier, ptr %11, i32 0, i32 6
  store i8 1, ptr %19, align 8, !tbaa !10
  %20 = load ptr, ptr %5, align 8, !tbaa !57
  invoke void @_ZN23expr_context_simplifier10reduce_recEP4exprR7obj_refIS0_11ast_managerE(ptr noundef nonnull align 8 dereferenceable(161) %11, ptr noundef %20, ptr noundef nonnull align 8 dereferenceable(16) %7)
          to label %21 unwind label %35

21:                                               ; preds = %18
  %22 = getelementptr inbounds nuw %class.expr_context_simplifier, ptr %11, i32 0, i32 5
  invoke void @_ZN8obj_markI4expr10bit_vector14default_t2uintIS0_EE5resetEv(ptr noundef nonnull align 8 dereferenceable(24) %22)
          to label %23 unwind label %35

23:                                               ; preds = %21
  %24 = getelementptr inbounds nuw %class.expr_context_simplifier, ptr %11, i32 0, i32 6
  store i8 0, ptr %24, align 8, !tbaa !10
  %25 = invoke noundef ptr @_ZNK7obj_refI4expr11ast_managerE3getEv(ptr noundef nonnull align 8 dereferenceable(16) %7)
          to label %26 unwind label %35

26:                                               ; preds = %23
  %27 = load ptr, ptr %6, align 8, !tbaa !59
  invoke void @_ZN23expr_context_simplifier10reduce_recEP4exprR7obj_refIS0_11ast_managerE(ptr noundef nonnull align 8 dereferenceable(161) %11, ptr noundef %25, ptr noundef nonnull align 8 dereferenceable(16) %27)
          to label %28 unwind label %35

28:                                               ; preds = %26
  %29 = load i32, ptr %10, align 4, !tbaa !62
  invoke void @_ZN23expr_context_simplifier11clean_trailEj(ptr noundef nonnull align 8 dereferenceable(161) %11, i32 noundef %29)
          to label %30 unwind label %35

30:                                               ; preds = %28
  call void @llvm.lifetime.end.p0(i64 4, ptr %10) #3
  call void @_ZN7obj_refI4expr11ast_managerED2Ev(ptr noundef nonnull align 8 dereferenceable(16) %7) #3
  call void @llvm.lifetime.end.p0(i64 16, ptr %7) #3
  ret void

31:                                               ; preds = %3
  %32 = landingpad { ptr, i32 }
          cleanup
  %33 = extractvalue { ptr, i32 } %32, 0
  store ptr %33, ptr %8, align 8
  %34 = extractvalue { ptr, i32 } %32, 1
  store i32 %34, ptr %9, align 4
  br label %39

35:                                               ; preds = %28, %26, %23, %21, %18, %15
  %36 = landingpad { ptr, i32 }
          cleanup
  %37 = extractvalue { ptr, i32 } %36, 0
  store ptr %37, ptr %8, align 8
  %38 = extractvalue { ptr, i32 } %36, 1
  store i32 %38, ptr %9, align 4
  call void @llvm.lifetime.end.p0(i64 4, ptr %10) #3
  br label %39

39:                                               ; preds = %35, %31
  call void @_ZN7obj_refI4expr11ast_managerED2Ev(ptr noundef nonnull align 8 dereferenceable(16) %7) #3
  call void @llvm.lifetime.end.p0(i64 16, ptr %7) #3
  br label %40

40:                                               ; preds = %39
  %41 = load ptr, ptr %8, align 8
  %42 = load i32, ptr %9, align 4
  %43 = insertvalue { ptr, i32 } poison, ptr %41, 0
  %44 = insertvalue { ptr, i32 } %43, i32 %42, 1
  resume { ptr, i32 } %44
}