; Function Attrs: mustprogress uwtable
define hidden void @_ZN23expr_context_simplifier6reduceEP4exprR7obj_refIS0_11ast_managerE(ptr noundef nonnull align 8 dereferenceable(161) initializes((144, 148), (160, 161)) %0, ptr noundef %1, ptr noundef nonnull align 8 dereferenceable(16) %2) local_unnamed_addr #3 align 2 personality ptr @__gxx_personality_v0 {
  %4 = alloca %class.obj_ref, align 8
  call void @llvm.lifetime.start.p0(i64 16, ptr nonnull %4) #19
  %5 = load ptr, ptr %0, align 8, !tbaa !54
  store ptr null, ptr %4, align 8, !tbaa !55
  %6 = getelementptr inbounds nuw i8, ptr %4, i64 8
  store ptr %5, ptr %6, align 8, !tbaa !3
  %7 = getelementptr inbounds nuw i8, ptr %0, i64 152
  %8 = load ptr, ptr %7, align 8, !tbaa !57
  %.not.i.i = icmp eq ptr %8, null
  br i1 %.not.i.i, label %14, label %9

9:                                                ; preds = %3
  %10 = getelementptr inbounds nuw i8, ptr %0, i64 148
  %11 = load i32, ptr %10, align 4, !tbaa !58
  %12 = zext i32 %11 to i64
  %13 = shl nuw nsw i64 %12, 2
  tail call void @llvm.memset.p0.i64(ptr nonnull align 4 %8, i8 0, i64 %13, i1 false)
  br label %14

14:                                               ; preds = %9, %3
  %15 = getelementptr inbounds nuw i8, ptr %0, i64 144
  store i32 0, ptr %15, align 8, !tbaa !59
  %16 = getelementptr inbounds nuw i8, ptr %0, i64 56
  %17 = load ptr, ptr %16, align 8, !tbaa !22
  %18 = icmp eq ptr %17, null
  br i1 %18, label %_ZNK15ref_vector_coreI4expr19ref_manager_wrapperIS0_11ast_managerEE4sizeEv.exit, label %19

19:                                               ; preds = %14
  %20 = getelementptr inbounds i8, ptr %17, i64 -4
  %21 = load i32, ptr %20, align 4, !tbaa !48
  br label %_ZNK15ref_vector_coreI4expr19ref_manager_wrapperIS0_11ast_managerEE4sizeEv.exit

_ZNK15ref_vector_coreI4expr19ref_manager_wrapperIS0_11ast_managerEE4sizeEv.exit: ; preds = %14, %19
  %.0.i.i = phi i32 [ %21, %19 ], [ 0, %14 ]
  %22 = getelementptr inbounds nuw i8, ptr %0, i64 160
  store i8 1, ptr %22, align 8, !tbaa !37
  invoke void @_ZN23expr_context_simplifier10reduce_recEP4exprR7obj_refIS0_11ast_managerE(ptr noundef nonnull align 8 dereferenceable(161) %0, ptr noundef %1, ptr noundef nonnull align 8 dereferenceable(16) %4)
          to label %23 unwind label %45

23:                                               ; preds = %_ZNK15ref_vector_coreI4expr19ref_manager_wrapperIS0_11ast_managerEE4sizeEv.exit
  %24 = load ptr, ptr %7, align 8, !tbaa !57
  %.not.i.i7 = icmp eq ptr %24, null
  br i1 %.not.i.i7, label %30, label %25

25:                                               ; preds = %23
  %26 = getelementptr inbounds nuw i8, ptr %0, i64 148
  %27 = load i32, ptr %26, align 4, !tbaa !58
  %28 = zext i32 %27 to i64
  %29 = shl nuw nsw i64 %28, 2
  call void @llvm.memset.p0.i64(ptr nonnull align 4 %24, i8 0, i64 %29, i1 false)
  br label %30

30:                                               ; preds = %25, %23
  store i32 0, ptr %15, align 8, !tbaa !59
  store i8 0, ptr %22, align 8, !tbaa !37
  %31 = load ptr, ptr %4, align 8, !tbaa !55
  invoke void @_ZN23expr_context_simplifier10reduce_recEP4exprR7obj_refIS0_11ast_managerE(ptr noundef nonnull align 8 dereferenceable(161) %0, ptr noundef %31, ptr noundef nonnull align 8 dereferenceable(16) %2)
          to label %32 unwind label %45

32:                                               ; preds = %30
  invoke void @_ZN23expr_context_simplifier11clean_trailEj(ptr noundef nonnull align 8 dereferenceable(161) %0, i32 noundef %.0.i.i)
          to label %33 unwind label %45

33:                                               ; preds = %32
  %34 = load ptr, ptr %4, align 8, !tbaa !55
  %.not.i.i9 = icmp eq ptr %34, null
  br i1 %.not.i.i9, label %_ZN7obj_refI4expr11ast_managerED2Ev.exit, label %35

35:                                               ; preds = %33
  %36 = load ptr, ptr %6, align 8, !tbaa !60
  %37 = getelementptr inbounds nuw i8, ptr %34, i64 8
  %38 = load i32, ptr %37, align 4, !tbaa !51
  %39 = add i32 %38, -1
  store i32 %39, ptr %37, align 4, !tbaa !51
  %40 = icmp eq i32 %39, 0
  br i1 %40, label %41, label %_ZN7obj_refI4expr11ast_managerED2Ev.exit

41:                                               ; preds = %35
  invoke void @_ZN11ast_manager11delete_nodeEP3ast(ptr noundef nonnull align 8 dereferenceable(976) %36, ptr noundef nonnull %34)
          to label %_ZN7obj_refI4expr11ast_managerED2Ev.exit unwind label %42

42:                                               ; preds = %41
  %43 = landingpad { ptr, i32 }
          catch ptr null
  %44 = extractvalue { ptr, i32 } %43, 0
  call void @__clang_call_terminate(ptr %44) #20
  unreachable

_ZN7obj_refI4expr11ast_managerED2Ev.exit:         ; preds = %33, %35, %41
  call void @llvm.lifetime.end.p0(i64 16, ptr nonnull %4) #19
  ret void

45:                                               ; preds = %32, %30, %_ZNK15ref_vector_coreI4expr19ref_manager_wrapperIS0_11ast_managerEE4sizeEv.exit
  %46 = landingpad { ptr, i32 }
          cleanup
  call void @_ZN7obj_refI4expr11ast_managerED2Ev(ptr noundef nonnull align 8 dereferenceable(16) %4) #19
  call void @llvm.lifetime.end.p0(i64 16, ptr nonnull %4) #19
  resume { ptr, i32 } %46
}